; Function Attrs: noinline nounwind uwtable
define internal fastcc signext range(i8 0, 2) i8 @moProcessAcceptsNoSquash512(ptr noundef readonly captures(none) %0, ptr noundef nonnull readonly captures(none) %1, ptr noundef nonnull readonly captures(none) %2, ptr noundef readonly captures(none) %3, i64 noundef %4, ptr noundef readonly captures(none) %5, ptr noundef %6) unnamed_addr #5 {
  %8 = alloca [8 x i64], align 16
  %9 = alloca [8 x i64], align 16
  %.sroa.014.0.copyload = load <4 x i64>, ptr %2, align 64
  %.sroa.5.0..sroa_idx = getelementptr inbounds nuw i8, ptr %2, i64 32
  %.sroa.5.0.copyload = load <4 x i64>, ptr %.sroa.5.0..sroa_idx, align 32
  %.sroa.010.0.copyload = load <4 x i64>, ptr %1, align 1
  %.sroa.411.0..sroa_idx = getelementptr inbounds nuw i8, ptr %1, i64 32
  %.sroa.411.0.copyload = load <4 x i64>, ptr %.sroa.411.0..sroa_idx, align 1
  %10 = and <4 x i64> %.sroa.010.0.copyload, %.sroa.014.0.copyload
  %11 = and <4 x i64> %.sroa.411.0.copyload, %.sroa.5.0.copyload
  call void @llvm.lifetime.start.p0(i64 64, ptr nonnull %8) #11
  store <4 x i64> %10, ptr %8, align 16
  %.sroa.4.0..sroa_idx = getelementptr inbounds nuw i8, ptr %8, i64 32
  store <4 x i64> %11, ptr %.sroa.4.0..sroa_idx, align 16
  call void @llvm.lifetime.start.p0(i64 64, ptr nonnull %9) #11
  store <4 x i64> %.sroa.014.0.copyload, ptr %9, align 16
  %.sroa.5.0..sroa_idx16 = getelementptr inbounds nuw i8, ptr %9, i64 32
  store <4 x i64> %.sroa.5.0.copyload, ptr %.sroa.5.0..sroa_idx16, align 16
  br label %12

12:                                               ; preds = %7, %.critedge.i.thread
  %indvars.iv = phi i64 [ 0, %7 ], [ %indvars.iv.next, %.critedge.i.thread ]
  %.031.i37 = phi i32 [ 0, %7 ], [ %43, %.critedge.i.thread ]
  %13 = getelementptr inbounds nuw [8 x i64], ptr %8, i64 0, i64 %indvars.iv
  %14 = load i64, ptr %13, align 8
  %.not.i33 = icmp eq i64 %14, 0
  %.phi.trans.insert = getelementptr inbounds nuw [8 x i64], ptr %9, i64 0, i64 %indvars.iv
  br i1 %.not.i33, label %..critedge.i.thread_crit_edge, label %.lr.ph35

..critedge.i.thread_crit_edge:                    ; preds = %12
  %.pre = load i64, ptr %.phi.trans.insert, align 8
  br label %.critedge.i.thread

.lr.ph35:                                         ; preds = %12, %limexRunAccept.exit.thread20
  %.034 = phi i64 [ %17, %limexRunAccept.exit.thread20 ], [ %14, %12 ]
  %15 = tail call { i64, i64 } asm "bsfq $1, $0\0Abtrq $0, $1\0A", "=r,=r,1,~{dirflag},~{fpsr},~{flags}"(i64 %.034) #12, !srcloc !126
  %16 = extractvalue { i64, i64 } %15, 0
  %17 = extractvalue { i64, i64 } %15, 1
  %18 = load i64, ptr %.phi.trans.insert, align 8
  %19 = and i64 %16, 4294967295
  %notmask.i = shl nsw i64 -1, %19
  %20 = xor i64 %notmask.i, -1
  %21 = and i64 %18, %20
  %22 = tail call range(i64 0, 64) i64 @llvm.ctpop.i64(i64 %21)
  %23 = trunc nuw nsw i64 %22 to i32
  %24 = add i32 %.031.i37, %23
  %25 = zext i32 %24 to i64
  %26 = getelementptr inbounds nuw %struct.NFAAccept, ptr %3, i64 %25
  %27 = load i8, ptr %26, align 4
  %.not.i7 = icmp eq i8 %27, 0
  %28 = getelementptr inbounds nuw i8, ptr %26, i64 4
  %29 = load i32, ptr %28, align 4
  br i1 %.not.i7, label %30, label %limexRunAccept.exit

30:                                               ; preds = %.lr.ph35
  %31 = zext i32 %29 to i64
  %32 = getelementptr inbounds nuw i8, ptr %0, i64 %31
  %33 = load i32, ptr %32, align 4
  %.not.i831 = icmp eq i32 %33, -1
  br i1 %.not.i831, label %limexRunAccept.exit.thread20, label %.lr.ph

34:                                               ; preds = %.lr.ph
  %35 = getelementptr inbounds nuw i8, ptr %.09.i32, i64 4
  %36 = load i32, ptr %35, align 4
  %.not.i8 = icmp eq i32 %36, -1
  br i1 %.not.i8, label %limexRunAccept.exit.thread20, label %.lr.ph

.lr.ph:                                           ; preds = %30, %34
  %37 = phi i32 [ %36, %34 ], [ %33, %30 ]
  %.09.i32 = phi ptr [ %35, %34 ], [ %32, %30 ]
  %38 = tail call i32 %5(i64 noundef 0, i64 noundef %4, i32 noundef %37, ptr noundef %6) #11
  %.not = icmp eq i32 %38, 0
  br i1 %.not, label %moProcessAcceptsImpl512.exit, label %34

limexRunAccept.exit:                              ; preds = %.lr.ph35
  %39 = tail call i32 %5(i64 noundef 0, i64 noundef %4, i32 noundef %29, ptr noundef %6) #11
  %.not42.i = icmp eq i32 %39, 0
  br i1 %.not42.i, label %moProcessAcceptsImpl512.exit, label %limexRunAccept.exit.thread20, !prof !611

limexRunAccept.exit.thread20:                     ; preds = %34, %30, %limexRunAccept.exit
  %.not.i = icmp eq i64 %17, 0
  br i1 %.not.i, label %.critedge.i.thread, label %.lr.ph35

.critedge.i.thread:                               ; preds = %limexRunAccept.exit.thread20, %..critedge.i.thread_crit_edge
  %40 = phi i64 [ %.pre, %..critedge.i.thread_crit_edge ], [ %18, %limexRunAccept.exit.thread20 ]
  %41 = tail call range(i64 0, 65) i64 @llvm.ctpop.i64(i64 %40)
  %42 = trunc nuw nsw i64 %41 to i32
  %43 = add i32 %.031.i37, %42
  %indvars.iv.next = add nuw nsw i64 %indvars.iv, 1
  %exitcond.not = icmp eq i64 %indvars.iv.next, 8
  br i1 %exitcond.not, label %moProcessAcceptsImpl512.exit, label %12

moProcessAcceptsImpl512.exit:                     ; preds = %.critedge.i.thread, %limexRunAccept.exit, %.lr.ph
  %spec.select.i = phi i8 [ 1, %.lr.ph ], [ 1, %limexRunAccept.exit ], [ 0, %.critedge.i.thread ]
  call void @llvm.lifetime.end.p0(i64 64, ptr nonnull %9) #11
  call void @llvm.lifetime.end.p0(i64 64, ptr nonnull %8) #11
  ret i8 %spec.select.i
}